; Function Attrs: nounwind sspstrong uwtable
define internal noundef i64 @inject_i(i64 %0, i64 noundef %1, i32 noundef %2, ptr noundef %3, i64 %4) #0 {
  %6 = inttoptr i64 %1 to ptr
  switch i32 %2, label %9 [
    i32 0, label %rb_enum_values_pack.exit
    i32 1, label %7
  ]

7:                                                ; preds = %5
  %8 = load i64, ptr %3, align 8, !tbaa !7
  br label %rb_enum_values_pack.exit

9:                                                ; preds = %5
  %10 = sext i32 %2 to i64
  %11 = tail call i64 @rb_ary_new_from_values(i64 noundef %10, ptr noundef %3) #14
  br label %rb_enum_values_pack.exit

rb_enum_values_pack.exit:                         ; preds = %5, %7, %9
  %.0.i = phi i64 [ %8, %7 ], [ %11, %9 ], [ 4, %5 ]
  %12 = getelementptr inbounds nuw i8, ptr %6, i64 16
  %13 = load i64, ptr %12, align 8, !tbaa !60
  %14 = icmp eq i64 %13, 36
  br i1 %14, label %15, label %20

15:                                               ; preds = %rb_enum_values_pack.exit
  store i64 %.0.i, ptr %12, align 8, !tbaa !7
  %16 = icmp eq i64 %.0.i, 0
  %17 = and i64 %.0.i, 7
  %18 = icmp ne i64 %17, 0
  %19 = or i1 %16, %18
  br i1 %19, label %MEMO_V1_SET.exit, label %MEMO_V1_SET.exit.sink.split

20:                                               ; preds = %rb_enum_values_pack.exit
  %21 = tail call i64 (i32, ...) @rb_yield_values(i32 noundef 2, i64 noundef %13, i64 noundef %.0.i) #14
  store i64 %21, ptr %12, align 8, !tbaa !7
  %22 = icmp eq i64 %21, 0
  %23 = and i64 %21, 7
  %24 = icmp ne i64 %23, 0
  %25 = or i1 %22, %24
  br i1 %25, label %MEMO_V1_SET.exit, label %MEMO_V1_SET.exit.sink.split

MEMO_V1_SET.exit.sink.split:                      ; preds = %20, %15
  %.sink = phi i64 [ %.0.i, %15 ], [ %21, %20 ]
  tail call void @rb_gc_writebarrier(i64 noundef %1, i64 noundef %.sink) #14
  br label %MEMO_V1_SET.exit

MEMO_V1_SET.exit:                                 ; preds = %MEMO_V1_SET.exit.sink.split, %20, %15
  ret i64 4
}